target datalayout = "e-m:e-p270:32:32-p271:32:32-p272:64:64-i64:64-i128:128-f80:128-n8:16:32:64-S128"
target triple = "x86_64-pc-linux-gnu"

%struct.formnode = type { i16, i16, i16, i32, i32, i32, i32, i16, i16, i16, i32, ptr, ptr, ptr, ptr, ptr, ptr, ptr, ptr, ptr, ptr, ptr }
%struct.fieldnode = type { i16, i16, i16, i16, i16, i32, i32, i32, i32, i16, i16, i16, i16, i32, i32, i32, i32, ptr, ptr, ptr, ptr, ptr, ptr, ptr, ptr }

; Function Attrs: nounwind uwtable
define internal ptr @After_End_Of_Data(ptr noundef %0, i32 noundef %1) #0 {
  %3 = alloca ptr, align 8
  %4 = alloca i32, align 4
  %5 = alloca ptr, align 8
  store ptr %0, ptr %3, align 8, !tbaa !55
  store i32 %1, ptr %4, align 4, !tbaa !35
  call void @llvm.lifetime.start.p0(i64 8, ptr %5) #9
  %6 = load ptr, ptr %3, align 8, !tbaa !55
  %7 = load i32, ptr %4, align 4, !tbaa !35
  %8 = sext i32 %7 to i64
  %9 = getelementptr inbounds i8, ptr %6, i64 %8
  store ptr %9, ptr %5, align 8, !tbaa !55
  br label %10

10:                                               ; preds = %22, %2
  %11 = load ptr, ptr %5, align 8, !tbaa !55
  %12 = load ptr, ptr %3, align 8, !tbaa !55
  %13 = icmp ugt ptr %11, %12
  br i1 %13, label %14, label %20

14:                                               ; preds = %10
  %15 = load ptr, ptr %5, align 8, !tbaa !55
  %16 = getelementptr inbounds i8, ptr %15, i64 -1
  %17 = load i8, ptr %16, align 1, !tbaa !65
  %18 = sext i8 %17 to i32
  %19 = icmp eq i32 %18, 32
  br label %20

20:                                               ; preds = %14, %10
  %21 = phi i1 [ false, %10 ], [ %19, %14 ]
  br i1 %21, label %22, label %25

22:                                               ; preds = %20
  %23 = load ptr, ptr %5, align 8, !tbaa !55
  %24 = getelementptr inbounds i8, ptr %23, i32 -1
  store ptr %24, ptr %5, align 8, !tbaa !55
  br label %10, !llvm.loop !116

25:                                               ; preds = %20
  %26 = load ptr, ptr %5, align 8, !tbaa !55
  call void @llvm.lifetime.end.p0(i64 8, ptr %5) #9
  ret ptr %26
}

; Function Attrs: nounwind uwtable
define internal ptr @Get_Start_Of_Data(ptr noundef %0, i32 noundef %1) #0 {
  %3 = alloca ptr, align 8
  %4 = alloca i32, align 4
  %5 = alloca ptr, align 8
  %6 = alloca ptr, align 8
  store ptr %0, ptr %3, align 8, !tbaa !55
  store i32 %1, ptr %4, align 4, !tbaa !35
  call void @llvm.lifetime.start.p0(i64 8, ptr %5) #9
  %7 = load ptr, ptr %3, align 8, !tbaa !55
  store ptr %7, ptr %5, align 8, !tbaa !55
  call void @llvm.lifetime.start.p0(i64 8, ptr %6) #9
  %8 = load ptr, ptr %3, align 8, !tbaa !55
  %9 = load i32, ptr %4, align 4, !tbaa !35
  %10 = sext i32 %9 to i64
  %11 = getelementptr inbounds i8, ptr %8, i64 %10
  store ptr %11, ptr %6, align 8, !tbaa !55
  br label %12

12:                                               ; preds = %23, %2
  %13 = load ptr, ptr %5, align 8, !tbaa !55
  %14 = load ptr, ptr %6, align 8, !tbaa !55
  %15 = icmp ult ptr %13, %14
  br i1 %15, label %16, label %21

16:                                               ; preds = %12
  %17 = load ptr, ptr %5, align 8, !tbaa !55
  %18 = load i8, ptr %17, align 1, !tbaa !65
  %19 = sext i8 %18 to i32
  %20 = icmp eq i32 %19, 32
  br label %21

21:                                               ; preds = %16, %12
  %22 = phi i1 [ false, %12 ], [ %20, %16 ]
  br i1 %22, label %23, label %26

23:                                               ; preds = %21
  %24 = load ptr, ptr %5, align 8, !tbaa !55
  %25 = getelementptr inbounds nuw i8, ptr %24, i32 1
  store ptr %25, ptr %5, align 8, !tbaa !55
  br label %12, !llvm.loop !115

26:                                               ; preds = %21
  %27 = load ptr, ptr %5, align 8, !tbaa !55
  %28 = load ptr, ptr %6, align 8, !tbaa !55
  %29 = icmp eq ptr %27, %28
  br i1 %29, label %30, label %32

30:                                               ; preds = %26
  %31 = load ptr, ptr %3, align 8, !tbaa !55
  br label %34

32:                                               ; preds = %26
  %33 = load ptr, ptr %5, align 8, !tbaa !55
  br label %34

34:                                               ; preds = %32, %30
  %35 = phi ptr [ %31, %30 ], [ %33, %32 ]
  call void @llvm.lifetime.end.p0(i64 8, ptr %6) #9
  call void @llvm.lifetime.end.p0(i64 8, ptr %5) #9
  ret ptr %35
}

; Function Attrs: nounwind uwtable
define internal ptr @Get_First_Whitespace_Character(ptr noundef %0, i32 noundef %1) #0 {
  %3 = alloca ptr, align 8
  %4 = alloca i32, align 4
  %5 = alloca ptr, align 8
  %6 = alloca ptr, align 8
  store ptr %0, ptr %3, align 8, !tbaa !55
  store i32 %1, ptr %4, align 4, !tbaa !35
  call void @llvm.lifetime.start.p0(i64 8, ptr %5) #9
  %7 = load ptr, ptr %3, align 8, !tbaa !55
  store ptr %7, ptr %5, align 8, !tbaa !55
  call void @llvm.lifetime.start.p0(i64 8, ptr %6) #9
  %8 = load ptr, ptr %5, align 8, !tbaa !55
  %9 = load i32, ptr %4, align 4, !tbaa !35
  %10 = sext i32 %9 to i64
  %11 = getelementptr inbounds i8, ptr %8, i64 %10
  store ptr %11, ptr %6, align 8, !tbaa !55
  br label %12

12:                                               ; preds = %24, %2
  %13 = load ptr, ptr %5, align 8, !tbaa !55
  %14 = load ptr, ptr %6, align 8, !tbaa !55
  %15 = icmp ult ptr %13, %14
  br i1 %15, label %16, label %22

16:                                               ; preds = %12
  %17 = load ptr, ptr %5, align 8, !tbaa !55
  %18 = load i8, ptr %17, align 1, !tbaa !65
  %19 = sext i8 %18 to i32
  %20 = icmp eq i32 %19, 32
  %21 = xor i1 %20, true
  br label %22

22:                                               ; preds = %16, %12
  %23 = phi i1 [ false, %12 ], [ %21, %16 ]
  br i1 %23, label %24, label %27

24:                                               ; preds = %22
  %25 = load ptr, ptr %5, align 8, !tbaa !55
  %26 = getelementptr inbounds nuw i8, ptr %25, i32 1
  store ptr %26, ptr %5, align 8, !tbaa !55
  br label %12, !llvm.loop !129

27:                                               ; preds = %22
  %28 = load ptr, ptr %5, align 8, !tbaa !55
  %29 = load ptr, ptr %6, align 8, !tbaa !55
  %30 = icmp eq ptr %28, %29
  br i1 %30, label %31, label %33

31:                                               ; preds = %27
  %32 = load ptr, ptr %3, align 8, !tbaa !55
  br label %35

33:                                               ; preds = %27
  %34 = load ptr, ptr %5, align 8, !tbaa !55
  br label %35

35:                                               ; preds = %33, %31
  %36 = phi ptr [ %32, %31 ], [ %34, %33 ]
  call void @llvm.lifetime.end.p0(i64 8, ptr %6) #9
  call void @llvm.lifetime.end.p0(i64 8, ptr %5) #9
  ret ptr %36
}

; Function Attrs: nounwind uwtable
define internal void @Adjust_Cursor_Position(ptr noundef %0, ptr noundef %1) #0 {
  %3 = alloca ptr, align 8
  %4 = alloca ptr, align 8
  %5 = alloca ptr, align 8
  %6 = alloca i32, align 4
  store ptr %0, ptr %3, align 8, !tbaa !4
  store ptr %1, ptr %4, align 8, !tbaa !55
  call void @llvm.lifetime.start.p0(i64 8, ptr %5) #9
  call void @llvm.lifetime.start.p0(i64 4, ptr %6) #9
  %7 = load ptr, ptr %3, align 8, !tbaa !4
  %8 = getelementptr inbounds nuw %struct.formnode, ptr %7, i32 0, i32 15
  %9 = load ptr, ptr %8, align 8, !tbaa !16
  store ptr %9, ptr %5, align 8, !tbaa !17
  %10 = load ptr, ptr %4, align 8, !tbaa !55
  %11 = load ptr, ptr %5, align 8, !tbaa !17
  %12 = getelementptr inbounds nuw %struct.fieldnode, ptr %11, i32 0, i32 23
  %13 = load ptr, ptr %12, align 8, !tbaa !54
  %14 = ptrtoint ptr %10 to i64
  %15 = ptrtoint ptr %13 to i64
  %16 = sub i64 %14, %15
  %17 = trunc i64 %16 to i32
  store i32 %17, ptr %6, align 4, !tbaa !35
  %18 = load i32, ptr %6, align 4, !tbaa !35
  %19 = load ptr, ptr %5, align 8, !tbaa !17
  %20 = getelementptr inbounds nuw %struct.fieldnode, ptr %19, i32 0, i32 6
  %21 = load i32, ptr %20, align 8, !tbaa !29
  %22 = sdiv i32 %18, %21
  %23 = load ptr, ptr %3, align 8, !tbaa !4
  %24 = getelementptr inbounds nuw %struct.formnode, ptr %23, i32 0, i32 3
  store i32 %22, ptr %24, align 8, !tbaa !21
  %25 = load i32, ptr %6, align 4, !tbaa !35
  %26 = load ptr, ptr %5, align 8, !tbaa !17
  %27 = getelementptr inbounds nuw %struct.fieldnode, ptr %26, i32 0, i32 2
  %28 = load i16, ptr %27, align 4, !tbaa !30
  %29 = sext i16 %28 to i32
  %30 = load ptr, ptr %3, align 8, !tbaa !4
  %31 = getelementptr inbounds nuw %struct.formnode, ptr %30, i32 0, i32 3
  %32 = load i32, ptr %31, align 8, !tbaa !21
  %33 = mul nsw i32 %29, %32
  %34 = sub nsw i32 %25, %33
  %35 = load ptr, ptr %3, align 8, !tbaa !4
  %36 = getelementptr inbounds nuw %struct.formnode, ptr %35, i32 0, i32 4
  store i32 %34, ptr %36, align 4, !tbaa !22
  %37 = load ptr, ptr %5, align 8, !tbaa !17
  %38 = getelementptr inbounds nuw %struct.fieldnode, ptr %37, i32 0, i32 5
  %39 = load i32, ptr %38, align 4, !tbaa !27
  %40 = load ptr, ptr %3, align 8, !tbaa !4
  %41 = getelementptr inbounds nuw %struct.formnode, ptr %40, i32 0, i32 3
  %42 = load i32, ptr %41, align 8, !tbaa !21
  %43 = icmp slt i32 %39, %42
  br i1 %43, label %44, label %47

44:                                               ; preds = %2
  %45 = load ptr, ptr %3, align 8, !tbaa !4
  %46 = getelementptr inbounds nuw %struct.formnode, ptr %45, i32 0, i32 3
  store i32 0, ptr %46, align 8, !tbaa !21
  br label %47

47:                                               ; preds = %44, %2
  call void @llvm.lifetime.end.p0(i64 4, ptr %6) #9
  call void @llvm.lifetime.end.p0(i64 8, ptr %5) #9
  ret void
}

; Function Attrs: nounwind uwtable
define internal ptr @After_Last_Whitespace_Character(ptr noundef %0, i32 noundef %1) #0 {
  %3 = alloca ptr, align 8
  %4 = alloca i32, align 4
  %5 = alloca ptr, align 8
  store ptr %0, ptr %3, align 8, !tbaa !55
  store i32 %1, ptr %4, align 4, !tbaa !35
  call void @llvm.lifetime.start.p0(i64 8, ptr %5) #9
  %6 = load ptr, ptr %3, align 8, !tbaa !55
  %7 = load i32, ptr %4, align 4, !tbaa !35
  %8 = sext i32 %7 to i64
  %9 = getelementptr inbounds i8, ptr %6, i64 %8
  store ptr %9, ptr %5, align 8, !tbaa !55
  br label %10

10:                                               ; preds = %23, %2
  %11 = load ptr, ptr %5, align 8, !tbaa !55
  %12 = load ptr, ptr %3, align 8, !tbaa !55
  %13 = icmp ugt ptr %11, %12
  br i1 %13, label %14, label %21

14:                                               ; preds = %10
  %15 = load ptr, ptr %5, align 8, !tbaa !55
  %16 = getelementptr inbounds i8, ptr %15, i64 -1
  %17 = load i8, ptr %16, align 1, !tbaa !65
  %18 = sext i8 %17 to i32
  %19 = icmp eq i32 %18, 32
  %20 = xor i1 %19, true
  br label %21

21:                                               ; preds = %14, %10
  %22 = phi i1 [ false, %10 ], [ %20, %14 ]
  br i1 %22, label %23, label %26

23:                                               ; preds = %21
  %24 = load ptr, ptr %5, align 8, !tbaa !55
  %25 = getelementptr inbounds i8, ptr %24, i32 -1
  store ptr %25, ptr %5, align 8, !tbaa !55
  br label %10, !llvm.loop !130

26:                                               ; preds = %21
  %27 = load ptr, ptr %5, align 8, !tbaa !55
  call void @llvm.lifetime.end.p0(i64 8, ptr %5) #9
  ret ptr %27
}

; Function Attrs: nounwind uwtable
define internal i32 @FE_Delete_Word(ptr noundef %0) #0 {
  %2 = alloca i32, align 4
  %3 = alloca ptr, align 8
  %4 = alloca ptr, align 8
  %5 = alloca ptr, align 8
  %6 = alloca ptr, align 8
  %7 = alloca ptr, align 8
  %8 = alloca ptr, align 8
  %9 = alloca i32, align 4
  store ptr %0, ptr %3, align 8, !tbaa !4
  call void @llvm.lifetime.start.p0(i64 8, ptr %4) #9
  %10 = load ptr, ptr %3, align 8, !tbaa !4
  %11 = getelementptr inbounds nuw %struct.formnode, ptr %10, i32 0, i32 15
  %12 = load ptr, ptr %11, align 8, !tbaa !16
  store ptr %12, ptr %4, align 8, !tbaa !17
  call void @llvm.lifetime.start.p0(i64 8, ptr %5) #9
  %13 = load ptr, ptr %3, align 8, !tbaa !4
  %14 = getelementptr inbounds nuw %struct.formnode, ptr %13, i32 0, i32 15
  %15 = load ptr, ptr %14, align 8, !tbaa !16
  %16 = getelementptr inbounds nuw %struct.fieldnode, ptr %15, i32 0, i32 23
  %17 = load ptr, ptr %16, align 8, !tbaa !54
  %18 = load ptr, ptr %3, align 8, !tbaa !4
  %19 = getelementptr inbounds nuw %struct.formnode, ptr %18, i32 0, i32 15
  %20 = load ptr, ptr %19, align 8, !tbaa !16
  %21 = getelementptr inbounds nuw %struct.fieldnode, ptr %20, i32 0, i32 5
  %22 = load i32, ptr %21, align 4, !tbaa !27
  %23 = load ptr, ptr %3, align 8, !tbaa !4
  %24 = getelementptr inbounds nuw %struct.formnode, ptr %23, i32 0, i32 15
  %25 = load ptr, ptr %24, align 8, !tbaa !16
  %26 = getelementptr inbounds nuw %struct.fieldnode, ptr %25, i32 0, i32 6
  %27 = load i32, ptr %26, align 8, !tbaa !29
  %28 = mul nsw i32 %22, %27
  %29 = add nsw i32 1, %28
  %30 = mul nsw i32 0, %29
  %31 = sext i32 %30 to i64
  %32 = getelementptr inbounds i8, ptr %17, i64 %31
  %33 = load ptr, ptr %3, align 8, !tbaa !4
  %34 = getelementptr inbounds nuw %struct.formnode, ptr %33, i32 0, i32 3
  %35 = load i32, ptr %34, align 8, !tbaa !21
  %36 = load ptr, ptr %3, align 8, !tbaa !4
  %37 = getelementptr inbounds nuw %struct.formnode, ptr %36, i32 0, i32 15
  %38 = load ptr, ptr %37, align 8, !tbaa !16
  %39 = getelementptr inbounds nuw %struct.fieldnode, ptr %38, i32 0, i32 6
  %40 = load i32, ptr %39, align 8, !tbaa !29
  %41 = mul nsw i32 %35, %40
  %42 = sext i32 %41 to i64
  %43 = getelementptr inbounds i8, ptr %32, i64 %42
  store ptr %43, ptr %5, align 8, !tbaa !55
  call void @llvm.lifetime.start.p0(i64 8, ptr %6) #9
  %44 = load ptr, ptr %5, align 8, !tbaa !55
  %45 = load ptr, ptr %4, align 8, !tbaa !17
  %46 = getelementptr inbounds nuw %struct.fieldnode, ptr %45, i32 0, i32 6
  %47 = load i32, ptr %46, align 8, !tbaa !29
  %48 = sext i32 %47 to i64
  %49 = getelementptr inbounds i8, ptr %44, i64 %48
  store ptr %49, ptr %6, align 8, !tbaa !55
  call void @llvm.lifetime.start.p0(i64 8, ptr %7) #9
  %50 = load ptr, ptr %5, align 8, !tbaa !55
  %51 = load ptr, ptr %3, align 8, !tbaa !4
  %52 = getelementptr inbounds nuw %struct.formnode, ptr %51, i32 0, i32 4
  %53 = load i32, ptr %52, align 4, !tbaa !22
  %54 = sext i32 %53 to i64
  %55 = getelementptr inbounds i8, ptr %50, i64 %54
  store ptr %55, ptr %7, align 8, !tbaa !55
  call void @llvm.lifetime.start.p0(i64 8, ptr %8) #9
  %56 = load ptr, ptr %3, align 8, !tbaa !4
  call void @Synchronize_Buffer(ptr noundef %56)
  %57 = load ptr, ptr %7, align 8, !tbaa !55
  %58 = load i8, ptr %57, align 1, !tbaa !65
  %59 = sext i8 %58 to i32
  %60 = icmp eq i32 %59, 32
  br i1 %60, label %61, label %62

61:                                               ; preds = %1
  store i32 -12, ptr %2, align 4
  store i32 1, ptr %9, align 4
  br label %127

62:                                               ; preds = %1
  %63 = load ptr, ptr %3, align 8, !tbaa !4
  %64 = load ptr, ptr %5, align 8, !tbaa !55
  %65 = load ptr, ptr %3, align 8, !tbaa !4
  %66 = getelementptr inbounds nuw %struct.formnode, ptr %65, i32 0, i32 4
  %67 = load i32, ptr %66, align 4, !tbaa !22
  %68 = call ptr @After_Last_Whitespace_Character(ptr noundef %64, i32 noundef %67)
  call void @Adjust_Cursor_Position(ptr noundef %63, ptr noundef %68)
  %69 = load ptr, ptr %3, align 8, !tbaa !4
  %70 = getelementptr inbounds nuw %struct.formnode, ptr %69, i32 0, i32 13
  %71 = load ptr, ptr %70, align 8, !tbaa !9
  %72 = load ptr, ptr %3, align 8, !tbaa !4
  %73 = getelementptr inbounds nuw %struct.formnode, ptr %72, i32 0, i32 3
  %74 = load i32, ptr %73, align 8, !tbaa !21
  %75 = load ptr, ptr %3, align 8, !tbaa !4
  %76 = getelementptr inbounds nuw %struct.formnode, ptr %75, i32 0, i32 4
  %77 = load i32, ptr %76, align 4, !tbaa !22
  %78 = call i32 @wmove(ptr noundef %71, i32 noundef %74, i32 noundef %77)
  %79 = load ptr, ptr %3, align 8, !tbaa !4
  %80 = getelementptr inbounds nuw %struct.formnode, ptr %79, i32 0, i32 13
  %81 = load ptr, ptr %80, align 8, !tbaa !9
  %82 = call i32 @wclrtoeol(ptr noundef %81)
  %83 = load ptr, ptr %7, align 8, !tbaa !55
  %84 = load ptr, ptr %6, align 8, !tbaa !55
  %85 = load ptr, ptr %7, align 8, !tbaa !55
  %86 = ptrtoint ptr %84 to i64
  %87 = ptrtoint ptr %85 to i64
  %88 = sub i64 %86, %87
  %89 = trunc i64 %88 to i32
  %90 = call ptr @Get_First_Whitespace_Character(ptr noundef %83, i32 noundef %89)
  store ptr %90, ptr %8, align 8, !tbaa !55
  %91 = load ptr, ptr %8, align 8, !tbaa !55
  %92 = load ptr, ptr %6, align 8, !tbaa !55
  %93 = load ptr, ptr %8, align 8, !tbaa !55
  %94 = ptrtoint ptr %92 to i64
  %95 = ptrtoint ptr %93 to i64
  %96 = sub i64 %94, %95
  %97 = trunc i64 %96 to i32
  %98 = call ptr @Get_Start_Of_Data(ptr noundef %91, i32 noundef %97)
  store ptr %98, ptr %8, align 8, !tbaa !55
  %99 = load ptr, ptr %8, align 8, !tbaa !55
  %100 = load ptr, ptr %7, align 8, !tbaa !55
  %101 = icmp ne ptr %99, %100
  br i1 %101, label %102, label %126

102:                                              ; preds = %62
  %103 = load ptr, ptr %8, align 8, !tbaa !55
  %104 = load i8, ptr %103, align 1, !tbaa !65
  %105 = sext i8 %104 to i32
  %106 = icmp eq i32 %105, 32
  br i1 %106, label %126, label %107

107:                                              ; preds = %102
  %108 = load ptr, ptr %3, align 8, !tbaa !4
  %109 = getelementptr inbounds nuw %struct.formnode, ptr %108, i32 0, i32 13
  %110 = load ptr, ptr %109, align 8, !tbaa !9
  %111 = load ptr, ptr %8, align 8, !tbaa !55
  %112 = load ptr, ptr %8, align 8, !tbaa !55
  %113 = load ptr, ptr %8, align 8, !tbaa !55
  %114 = load ptr, ptr %6, align 8, !tbaa !55
  %115 = load ptr, ptr %8, align 8, !tbaa !55
  %116 = ptrtoint ptr %114 to i64
  %117 = ptrtoint ptr %115 to i64
  %118 = sub i64 %116, %117
  %119 = trunc i64 %118 to i32
  %120 = call ptr @After_End_Of_Data(ptr noundef %113, i32 noundef %119)
  %121 = ptrtoint ptr %112 to i64
  %122 = ptrtoint ptr %120 to i64
  %123 = sub i64 %121, %122
  %124 = trunc i64 %123 to i32
  %125 = call i32 @waddnstr(ptr noundef %110, ptr noundef %111, i32 noundef %124)
  br label %126

126:                                              ; preds = %107, %102, %62
  store i32 0, ptr %2, align 4
  store i32 1, ptr %9, align 4
  br label %127

127:                                              ; preds = %126, %61
  call void @llvm.lifetime.end.p0(i64 8, ptr %8) #9
  call void @llvm.lifetime.end.p0(i64 8, ptr %7) #9
  call void @llvm.lifetime.end.p0(i64 8, ptr %6) #9
  call void @llvm.lifetime.end.p0(i64 8, ptr %5) #9
  call void @llvm.lifetime.end.p0(i64 8, ptr %4) #9
  %128 = load i32, ptr %2, align 4
  ret i32 %128
}