; Function Attrs: nounwind uwtable
define internal range(i32 -12, 1) i32 @FE_Delete_Word(ptr noundef captures(none) %0) #0 {
  %2 = getelementptr inbounds nuw i8, ptr %0, i64 72
  %3 = load ptr, ptr %2, align 8, !tbaa !14
  %4 = getelementptr inbounds nuw i8, ptr %3, i64 104
  %5 = load ptr, ptr %4, align 8, !tbaa !52
  %6 = getelementptr inbounds nuw i8, ptr %3, i64 16
  %7 = load i32, ptr %6, align 8, !tbaa !26
  %8 = getelementptr inbounds nuw i8, ptr %0, i64 8
  %9 = load i32, ptr %8, align 8, !tbaa !17
  %10 = mul nsw i32 %9, %7
  %11 = sext i32 %10 to i64
  %12 = getelementptr inbounds i8, ptr %5, i64 %11
  %13 = getelementptr inbounds nuw i8, ptr %0, i64 12
  %14 = load i32, ptr %13, align 4, !tbaa !18
  %15 = sext i32 %14 to i64
  %16 = getelementptr inbounds i8, ptr %12, i64 %15
  tail call fastcc void @Synchronize_Buffer(ptr noundef %0)
  %17 = load i8, ptr %16, align 1, !tbaa !54
  %18 = icmp eq i8 %17, 32
  br i1 %18, label %97, label %19

19:                                               ; preds = %1
  %20 = sext i32 %7 to i64
  %21 = getelementptr inbounds i8, ptr %12, i64 %20
  %22 = load i32, ptr %13, align 4, !tbaa !18
  %23 = sext i32 %22 to i64
  %24 = getelementptr inbounds i8, ptr %12, i64 %23
  br label %25

25:                                               ; preds = %27, %19
  %.0.i = phi ptr [ %24, %19 ], [ %28, %27 ]
  %26 = icmp ugt ptr %.0.i, %12
  br i1 %26, label %27, label %After_Last_Whitespace_Character.exit

27:                                               ; preds = %25
  %28 = getelementptr inbounds i8, ptr %.0.i, i64 -1
  %29 = load i8, ptr %28, align 1, !tbaa !54
  %.not.i = icmp eq i8 %29, 32
  br i1 %.not.i, label %After_Last_Whitespace_Character.exit, label %25, !llvm.loop !121

After_Last_Whitespace_Character.exit:             ; preds = %25, %27
  %30 = load ptr, ptr %2, align 8, !tbaa !14
  %31 = getelementptr inbounds nuw i8, ptr %30, i64 104
  %32 = load ptr, ptr %31, align 8, !tbaa !52
  %33 = ptrtoint ptr %.0.i to i64
  %34 = ptrtoint ptr %32 to i64
  %35 = sub i64 %33, %34
  %36 = trunc i64 %35 to i32
  %37 = getelementptr inbounds nuw i8, ptr %30, i64 16
  %38 = load i32, ptr %37, align 8, !tbaa !26
  %39 = sdiv i32 %36, %38
  store i32 %39, ptr %8, align 8, !tbaa !17
  %40 = getelementptr inbounds nuw i8, ptr %30, i64 4
  %41 = load i16, ptr %40, align 4, !tbaa !27
  %42 = sext i16 %41 to i32
  %43 = mul nsw i32 %39, %42
  %44 = sub nsw i32 %36, %43
  store i32 %44, ptr %13, align 4, !tbaa !18
  %45 = getelementptr inbounds nuw i8, ptr %30, i64 12
  %46 = load i32, ptr %45, align 4, !tbaa !24
  %47 = icmp slt i32 %46, %39
  br i1 %47, label %48, label %Adjust_Cursor_Position.exit

48:                                               ; preds = %After_Last_Whitespace_Character.exit
  store i32 0, ptr %8, align 8, !tbaa !17
  br label %Adjust_Cursor_Position.exit

Adjust_Cursor_Position.exit:                      ; preds = %After_Last_Whitespace_Character.exit, %48
  %49 = phi i32 [ %39, %After_Last_Whitespace_Character.exit ], [ 0, %48 ]
  %50 = getelementptr inbounds nuw i8, ptr %0, i64 56
  %51 = load ptr, ptr %50, align 8, !tbaa !4
  %52 = tail call i32 @wmove(ptr noundef %51, i32 noundef %49, i32 noundef %44) #13
  %53 = load ptr, ptr %50, align 8, !tbaa !4
  %54 = tail call i32 @wclrtoeol(ptr noundef %53) #13
  %55 = ptrtoint ptr %21 to i64
  %gepdiff = sub i32 %7, %14
  %56 = sext i32 %gepdiff to i64
  %57 = getelementptr inbounds i8, ptr %16, i64 %56
  %58 = icmp sgt i32 %gepdiff, 0
  br i1 %58, label %.lr.ph.i, label %Get_First_Whitespace_Character.exit

.lr.ph.i:                                         ; preds = %Adjust_Cursor_Position.exit, %60
  %.010.i = phi ptr [ %61, %60 ], [ %16, %Adjust_Cursor_Position.exit ]
  %59 = load i8, ptr %.010.i, align 1, !tbaa !54
  %.not.i35 = icmp eq i8 %59, 32
  br i1 %.not.i35, label %Get_First_Whitespace_Character.exit, label %60

60:                                               ; preds = %.lr.ph.i
  %61 = getelementptr inbounds nuw i8, ptr %.010.i, i64 1
  %62 = icmp ult ptr %61, %57
  br i1 %62, label %.lr.ph.i, label %Get_First_Whitespace_Character.exit, !llvm.loop !120

Get_First_Whitespace_Character.exit:              ; preds = %.lr.ph.i, %60, %Adjust_Cursor_Position.exit
  %.0.lcssa.i = phi ptr [ %16, %Adjust_Cursor_Position.exit ], [ %.010.i, %.lr.ph.i ], [ %61, %60 ]
  %63 = icmp eq ptr %.0.lcssa.i, %57
  %64 = select i1 %63, ptr %16, ptr %.0.lcssa.i
  %65 = ptrtoint ptr %64 to i64
  %66 = sub i64 %55, %65
  %67 = trunc i64 %66 to i32
  %sext = shl i64 %66, 32
  %68 = ashr exact i64 %sext, 32
  %69 = getelementptr inbounds i8, ptr %64, i64 %68
  %70 = icmp sgt i32 %67, 0
  br i1 %70, label %.lr.ph.i37, label %Get_Start_Of_Data.exit

.lr.ph.i37:                                       ; preds = %Get_First_Whitespace_Character.exit, %73
  %.010.i38 = phi ptr [ %74, %73 ], [ %64, %Get_First_Whitespace_Character.exit ]
  %71 = load i8, ptr %.010.i38, align 1, !tbaa !54
  %72 = icmp eq i8 %71, 32
  br i1 %72, label %73, label %Get_Start_Of_Data.exit

73:                                               ; preds = %.lr.ph.i37
  %74 = getelementptr inbounds nuw i8, ptr %.010.i38, i64 1
  %75 = icmp ult ptr %74, %69
  br i1 %75, label %.lr.ph.i37, label %Get_Start_Of_Data.exit, !llvm.loop !56

Get_Start_Of_Data.exit:                           ; preds = %.lr.ph.i37, %73, %Get_First_Whitespace_Character.exit
  %.0.lcssa.i36 = phi ptr [ %64, %Get_First_Whitespace_Character.exit ], [ %.010.i38, %.lr.ph.i37 ], [ %74, %73 ]
  %76 = icmp eq ptr %.0.lcssa.i36, %69
  %77 = select i1 %76, ptr %64, ptr %.0.lcssa.i36
  %.not = icmp eq ptr %77, %16
  br i1 %.not, label %97, label %78

78:                                               ; preds = %Get_Start_Of_Data.exit
  %79 = load i8, ptr %77, align 1, !tbaa !54
  %80 = icmp eq i8 %79, 32
  br i1 %80, label %97, label %81

81:                                               ; preds = %78
  %82 = load ptr, ptr %50, align 8, !tbaa !4
  %83 = ptrtoint ptr %77 to i64
  %84 = sub i64 %55, %83
  %sext40 = shl i64 %84, 32
  %85 = ashr exact i64 %sext40, 32
  %86 = getelementptr inbounds i8, ptr %77, i64 %85
  br label %87

87:                                               ; preds = %89, %81
  %.0.i39 = phi ptr [ %86, %81 ], [ %90, %89 ]
  %88 = icmp ugt ptr %.0.i39, %77
  br i1 %88, label %89, label %After_End_Of_Data.exit

89:                                               ; preds = %87
  %90 = getelementptr inbounds i8, ptr %.0.i39, i64 -1
  %91 = load i8, ptr %90, align 1, !tbaa !54
  %92 = icmp eq i8 %91, 32
  br i1 %92, label %87, label %After_End_Of_Data.exit, !llvm.loop !57

After_End_Of_Data.exit:                           ; preds = %87, %89
  %93 = ptrtoint ptr %.0.i39 to i64
  %94 = sub i64 %83, %93
  %95 = trunc i64 %94 to i32
  %96 = tail call i32 @waddnstr(ptr noundef %82, ptr noundef nonnull %77, i32 noundef %95) #13
  br label %97

97:                                               ; preds = %Get_Start_Of_Data.exit, %78, %After_End_Of_Data.exit, %1
  %.0 = phi i32 [ -12, %1 ], [ 0, %After_End_Of_Data.exit ], [ 0, %78 ], [ 0, %Get_Start_Of_Data.exit ]
  ret i32 %.0
}